; Function Attrs: mustprogress sspstrong uwtable
define void @_ZN3tbb6detail2r14waitERNS0_2d115task_arena_baseE(ptr noundef nonnull readonly align 8 captures(none) dereferenceable(48) %0) local_unnamed_addr #1 personality ptr @__gxx_personality_v0 {
  %2 = getelementptr inbounds nuw i8, ptr %0, i64 16
  %3 = load atomic i64, ptr %2 monotonic, align 8
  %.0.i.i.i = inttoptr i64 %3 to ptr
  %4 = load i32, ptr @_ZN3tbb6detail2r18governor6theTLSE, align 4, !tbaa !111
  %5 = tail call noundef ptr @pthread_getspecific(i32 noundef %4) #13
  %.not.i.i = icmp eq ptr %5, null
  br i1 %.not.i.i, label %6, label %_ZN3tbb6detail2r18governor15get_thread_dataEv.exit.i

6:                                                ; preds = %1
  tail call void @_ZN3tbb6detail2r18governor20init_external_threadEv()
  %7 = load i32, ptr @_ZN3tbb6detail2r18governor6theTLSE, align 4, !tbaa !111
  %8 = tail call noundef ptr @pthread_getspecific(i32 noundef %7) #13
  br label %_ZN3tbb6detail2r18governor15get_thread_dataEv.exit.i

_ZN3tbb6detail2r18governor15get_thread_dataEv.exit.i: ; preds = %6, %1
  %9 = getelementptr inbounds nuw i8, ptr %.0.i.i.i, i64 380
  %10 = load i32, ptr %9, align 4, !tbaa !151
  %.not.i = icmp eq i32 %10, 0
  br i1 %.not.i, label %_ZN3tbb6detail2r115task_arena_impl4waitERNS0_2d115task_arena_baseE.exit, label %.preheader.i

.preheader.i:                                     ; preds = %_ZN3tbb6detail2r18governor15get_thread_dataEv.exit.i
  %11 = getelementptr inbounds nuw i8, ptr %.0.i.i.i, i64 232
  %12 = getelementptr inbounds nuw i8, ptr %.0.i.i.i, i64 132
  br label %13

13:                                               ; preds = %.critedge.i, %.preheader.i
  %14 = load atomic i32, ptr %12 acquire, align 4
  %.not4.i = icmp ult i32 %14, 4096
  br i1 %.not4.i, label %15, label %.critedge.i

15:                                               ; preds = %13
  %16 = load atomic i64, ptr %11 acquire, align 8
  %.not.i5.i = icmp eq i64 %16, 0
  br i1 %.not.i5.i, label %_ZN3tbb6detail2r115task_arena_impl4waitERNS0_2d115task_arena_baseE.exit, label %.critedge.i

.critedge.i:                                      ; preds = %15, %13
  %17 = tail call noundef i32 @sched_yield() #13
  br label %13, !llvm.loop !243

_ZN3tbb6detail2r115task_arena_impl4waitERNS0_2d115task_arena_baseE.exit: ; preds = %15, %_ZN3tbb6detail2r18governor15get_thread_dataEv.exit.i
  ret void
}